target datalayout = "e-m:e-p270:32:32-p271:32:32-p272:64:64-i64:64-i128:128-f80:128-n8:16:32:64-S128"
target triple = "x86_64-pc-linux-gnu"

%struct.sct_st = type { i32, ptr, i64, ptr, i64, i64, ptr, i64, i8, i8, ptr, i64, i32, i32, i32 }

@.str = private unnamed_addr constant [30 x i8] c"../openssl/crypto/ct/ct_oct.c\00", align 1
@__func__.o2i_SCT = private unnamed_addr constant [8 x i8] c"o2i_SCT\00", align 1

; Function Attrs: nounwind uwtable
define ptr @o2i_SCT(ptr noundef %0, ptr noundef %1, i64 noundef %2) #0 {
  %4 = alloca ptr, align 8
  %5 = alloca ptr, align 8
  %6 = alloca ptr, align 8
  %7 = alloca i64, align 8
  %8 = alloca ptr, align 8
  %9 = alloca ptr, align 8
  %10 = alloca i32, align 4
  %11 = alloca i64, align 8
  %12 = alloca i32, align 4
  store ptr %0, ptr %5, align 8, !tbaa !20
  store ptr %1, ptr %6, align 8, !tbaa !8
  store i64 %2, ptr %7, align 8, !tbaa !10
  call void @llvm.lifetime.start.p0(i64 8, ptr %8) #5
  store ptr null, ptr %8, align 8, !tbaa !3
  call void @llvm.lifetime.start.p0(i64 8, ptr %9) #5
  %13 = load i64, ptr %7, align 8, !tbaa !10
  %14 = icmp eq i64 %13, 0
  br i1 %14, label %18, label %15

15:                                               ; preds = %3
  %16 = load i64, ptr %7, align 8, !tbaa !10
  %17 = icmp ugt i64 %16, 65535
  br i1 %17, label %18, label %19

18:                                               ; preds = %15, %3
  call void @ERR_new()
  call void @ERR_set_debug(ptr noundef @.str, i32 noundef 76, ptr noundef @__func__.o2i_SCT)
  call void (i32, i32, ptr, ...) @ERR_set_error(i32 noundef 50, i32 noundef 104, ptr noundef null)
  br label %216

19:                                               ; preds = %15
  %20 = call ptr @SCT_new()
  store ptr %20, ptr %8, align 8, !tbaa !3
  %21 = icmp eq ptr %20, null
  br i1 %21, label %22, label %23

22:                                               ; preds = %19
  br label %216

23:                                               ; preds = %19
  %24 = load ptr, ptr %6, align 8, !tbaa !8
  %25 = load ptr, ptr %24, align 8, !tbaa !16
  store ptr %25, ptr %9, align 8, !tbaa !16
  %26 = load ptr, ptr %9, align 8, !tbaa !16
  %27 = load i8, ptr %26, align 1, !tbaa !17
  %28 = zext i8 %27 to i32
  %29 = load ptr, ptr %8, align 8, !tbaa !3
  %30 = getelementptr inbounds nuw %struct.sct_st, ptr %29, i32 0, i32 0
  store i32 %28, ptr %30, align 8, !tbaa !12
  %31 = load ptr, ptr %8, align 8, !tbaa !3
  %32 = getelementptr inbounds nuw %struct.sct_st, ptr %31, i32 0, i32 0
  %33 = load i32, ptr %32, align 8, !tbaa !12
  %34 = icmp eq i32 %33, 0
  br i1 %34, label %35, label %187

35:                                               ; preds = %23
  call void @llvm.lifetime.start.p0(i64 4, ptr %10) #5
  call void @llvm.lifetime.start.p0(i64 8, ptr %11) #5
  %36 = load i64, ptr %7, align 8, !tbaa !10
  %37 = icmp ult i64 %36, 43
  br i1 %37, label %38, label %39

38:                                               ; preds = %35
  call void @ERR_new()
  call void @ERR_set_debug(ptr noundef @.str, i32 noundef 99, ptr noundef @__func__.o2i_SCT)
  call void (i32, i32, ptr, ...) @ERR_set_error(i32 noundef 50, i32 noundef 104, ptr noundef null)
  store i32 2, ptr %12, align 4
  br label %184

39:                                               ; preds = %35
  %40 = load i64, ptr %7, align 8, !tbaa !10
  %41 = sub i64 %40, 43
  store i64 %41, ptr %7, align 8, !tbaa !10
  %42 = load ptr, ptr %9, align 8, !tbaa !16
  %43 = getelementptr inbounds nuw i8, ptr %42, i32 1
  store ptr %43, ptr %9, align 8, !tbaa !16
  %44 = load ptr, ptr %9, align 8, !tbaa !16
  %45 = call noalias ptr @CRYPTO_memdup(ptr noundef %44, i64 noundef 32, ptr noundef @.str, i32 noundef 104)
  %46 = load ptr, ptr %8, align 8, !tbaa !3
  %47 = getelementptr inbounds nuw %struct.sct_st, ptr %46, i32 0, i32 3
  store ptr %45, ptr %47, align 8, !tbaa !22
  %48 = load ptr, ptr %8, align 8, !tbaa !3
  %49 = getelementptr inbounds nuw %struct.sct_st, ptr %48, i32 0, i32 3
  %50 = load ptr, ptr %49, align 8, !tbaa !22
  %51 = icmp eq ptr %50, null
  br i1 %51, label %52, label %53

52:                                               ; preds = %39
  store i32 2, ptr %12, align 4
  br label %184

53:                                               ; preds = %39
  %54 = load ptr, ptr %8, align 8, !tbaa !3
  %55 = getelementptr inbounds nuw %struct.sct_st, ptr %54, i32 0, i32 4
  store i64 32, ptr %55, align 8, !tbaa !23
  %56 = load ptr, ptr %9, align 8, !tbaa !16
  %57 = getelementptr inbounds i8, ptr %56, i64 32
  store ptr %57, ptr %9, align 8, !tbaa !16
  %58 = load ptr, ptr %9, align 8, !tbaa !16
  %59 = getelementptr inbounds nuw i8, ptr %58, i32 1
  store ptr %59, ptr %9, align 8, !tbaa !16
  %60 = load i8, ptr %58, align 1, !tbaa !17
  %61 = zext i8 %60 to i64
  %62 = shl i64 %61, 56
  %63 = load ptr, ptr %8, align 8, !tbaa !3
  %64 = getelementptr inbounds nuw %struct.sct_st, ptr %63, i32 0, i32 5
  store i64 %62, ptr %64, align 8, !tbaa !24
  %65 = load ptr, ptr %9, align 8, !tbaa !16
  %66 = getelementptr inbounds nuw i8, ptr %65, i32 1
  store ptr %66, ptr %9, align 8, !tbaa !16
  %67 = load i8, ptr %65, align 1, !tbaa !17
  %68 = zext i8 %67 to i64
  %69 = shl i64 %68, 48
  %70 = load ptr, ptr %8, align 8, !tbaa !3
  %71 = getelementptr inbounds nuw %struct.sct_st, ptr %70, i32 0, i32 5
  %72 = load i64, ptr %71, align 8, !tbaa !24
  %73 = or i64 %72, %69
  store i64 %73, ptr %71, align 8, !tbaa !24
  %74 = load ptr, ptr %9, align 8, !tbaa !16
  %75 = getelementptr inbounds nuw i8, ptr %74, i32 1
  store ptr %75, ptr %9, align 8, !tbaa !16
  %76 = load i8, ptr %74, align 1, !tbaa !17
  %77 = zext i8 %76 to i64
  %78 = shl i64 %77, 40
  %79 = load ptr, ptr %8, align 8, !tbaa !3
  %80 = getelementptr inbounds nuw %struct.sct_st, ptr %79, i32 0, i32 5
  %81 = load i64, ptr %80, align 8, !tbaa !24
  %82 = or i64 %81, %78
  store i64 %82, ptr %80, align 8, !tbaa !24
  %83 = load ptr, ptr %9, align 8, !tbaa !16
  %84 = getelementptr inbounds nuw i8, ptr %83, i32 1
  store ptr %84, ptr %9, align 8, !tbaa !16
  %85 = load i8, ptr %83, align 1, !tbaa !17
  %86 = zext i8 %85 to i64
  %87 = shl i64 %86, 32
  %88 = load ptr, ptr %8, align 8, !tbaa !3
  %89 = getelementptr inbounds nuw %struct.sct_st, ptr %88, i32 0, i32 5
  %90 = load i64, ptr %89, align 8, !tbaa !24
  %91 = or i64 %90, %87
  store i64 %91, ptr %89, align 8, !tbaa !24
  %92 = load ptr, ptr %9, align 8, !tbaa !16
  %93 = getelementptr inbounds nuw i8, ptr %92, i32 1
  store ptr %93, ptr %9, align 8, !tbaa !16
  %94 = load i8, ptr %92, align 1, !tbaa !17
  %95 = zext i8 %94 to i64
  %96 = shl i64 %95, 24
  %97 = load ptr, ptr %8, align 8, !tbaa !3
  %98 = getelementptr inbounds nuw %struct.sct_st, ptr %97, i32 0, i32 5
  %99 = load i64, ptr %98, align 8, !tbaa !24
  %100 = or i64 %99, %96
  store i64 %100, ptr %98, align 8, !tbaa !24
  %101 = load ptr, ptr %9, align 8, !tbaa !16
  %102 = getelementptr inbounds nuw i8, ptr %101, i32 1
  store ptr %102, ptr %9, align 8, !tbaa !16
  %103 = load i8, ptr %101, align 1, !tbaa !17
  %104 = zext i8 %103 to i64
  %105 = shl i64 %104, 16
  %106 = load ptr, ptr %8, align 8, !tbaa !3
  %107 = getelementptr inbounds nuw %struct.sct_st, ptr %106, i32 0, i32 5
  %108 = load i64, ptr %107, align 8, !tbaa !24
  %109 = or i64 %108, %105
  store i64 %109, ptr %107, align 8, !tbaa !24
  %110 = load ptr, ptr %9, align 8, !tbaa !16
  %111 = getelementptr inbounds nuw i8, ptr %110, i32 1
  store ptr %111, ptr %9, align 8, !tbaa !16
  %112 = load i8, ptr %110, align 1, !tbaa !17
  %113 = zext i8 %112 to i64
  %114 = shl i64 %113, 8
  %115 = load ptr, ptr %8, align 8, !tbaa !3
  %116 = getelementptr inbounds nuw %struct.sct_st, ptr %115, i32 0, i32 5
  %117 = load i64, ptr %116, align 8, !tbaa !24
  %118 = or i64 %117, %114
  store i64 %118, ptr %116, align 8, !tbaa !24
  %119 = load ptr, ptr %9, align 8, !tbaa !16
  %120 = getelementptr inbounds nuw i8, ptr %119, i32 1
  store ptr %120, ptr %9, align 8, !tbaa !16
  %121 = load i8, ptr %119, align 1, !tbaa !17
  %122 = zext i8 %121 to i64
  %123 = load ptr, ptr %8, align 8, !tbaa !3
  %124 = getelementptr inbounds nuw %struct.sct_st, ptr %123, i32 0, i32 5
  %125 = load i64, ptr %124, align 8, !tbaa !24
  %126 = or i64 %125, %122
  store i64 %126, ptr %124, align 8, !tbaa !24
  %127 = load ptr, ptr %9, align 8, !tbaa !16
  %128 = getelementptr inbounds i8, ptr %127, i64 0
  %129 = load i8, ptr %128, align 1, !tbaa !17
  %130 = zext i8 %129 to i32
  %131 = shl i32 %130, 8
  %132 = load ptr, ptr %9, align 8, !tbaa !16
  %133 = getelementptr inbounds i8, ptr %132, i64 1
  %134 = load i8, ptr %133, align 1, !tbaa !17
  %135 = zext i8 %134 to i32
  %136 = or i32 %131, %135
  %137 = zext i32 %136 to i64
  store i64 %137, ptr %11, align 8, !tbaa !10
  %138 = load ptr, ptr %9, align 8, !tbaa !16
  %139 = getelementptr inbounds i8, ptr %138, i64 2
  store ptr %139, ptr %9, align 8, !tbaa !16
  %140 = load i64, ptr %7, align 8, !tbaa !10
  %141 = load i64, ptr %11, align 8, !tbaa !10
  %142 = icmp ult i64 %140, %141
  br i1 %142, label %143, label %144

143:                                              ; preds = %53
  call void @ERR_new()
  call void @ERR_set_debug(ptr noundef @.str, i32 noundef 114, ptr noundef @__func__.o2i_SCT)
  call void (i32, i32, ptr, ...) @ERR_set_error(i32 noundef 50, i32 noundef 104, ptr noundef null)
  store i32 2, ptr %12, align 4
  br label %184

144:                                              ; preds = %53
  %145 = load i64, ptr %11, align 8, !tbaa !10
  %146 = icmp ugt i64 %145, 0
  br i1 %146, label %147, label %159

147:                                              ; preds = %144
  %148 = load ptr, ptr %9, align 8, !tbaa !16
  %149 = load i64, ptr %11, align 8, !tbaa !10
  %150 = call noalias ptr @CRYPTO_memdup(ptr noundef %148, i64 noundef %149, ptr noundef @.str, i32 noundef 118)
  %151 = load ptr, ptr %8, align 8, !tbaa !3
  %152 = getelementptr inbounds nuw %struct.sct_st, ptr %151, i32 0, i32 6
  store ptr %150, ptr %152, align 8, !tbaa !25
  %153 = load ptr, ptr %8, align 8, !tbaa !3
  %154 = getelementptr inbounds nuw %struct.sct_st, ptr %153, i32 0, i32 6
  %155 = load ptr, ptr %154, align 8, !tbaa !25
  %156 = icmp eq ptr %155, null
  br i1 %156, label %157, label %158

157:                                              ; preds = %147
  store i32 2, ptr %12, align 4
  br label %184

158:                                              ; preds = %147
  br label %159

159:                                              ; preds = %158, %144
  %160 = load i64, ptr %11, align 8, !tbaa !10
  %161 = load ptr, ptr %8, align 8, !tbaa !3
  %162 = getelementptr inbounds nuw %struct.sct_st, ptr %161, i32 0, i32 7
  store i64 %160, ptr %162, align 8, !tbaa !26
  %163 = load i64, ptr %11, align 8, !tbaa !10
  %164 = load ptr, ptr %9, align 8, !tbaa !16
  %165 = getelementptr inbounds nuw i8, ptr %164, i64 %163
  store ptr %165, ptr %9, align 8, !tbaa !16
  %166 = load i64, ptr %11, align 8, !tbaa !10
  %167 = load i64, ptr %7, align 8, !tbaa !10
  %168 = sub i64 %167, %166
  store i64 %168, ptr %7, align 8, !tbaa !10
  %169 = load ptr, ptr %8, align 8, !tbaa !3
  %170 = load i64, ptr %7, align 8, !tbaa !10
  %171 = call i32 @o2i_SCT_signature(ptr noundef %169, ptr noundef %9, i64 noundef %170)
  store i32 %171, ptr %10, align 4, !tbaa !27
  %172 = load i32, ptr %10, align 4, !tbaa !27
  %173 = icmp sle i32 %172, 0
  br i1 %173, label %174, label %175

174:                                              ; preds = %159
  call void @ERR_new()
  call void @ERR_set_debug(ptr noundef @.str, i32 noundef 128, ptr noundef @__func__.o2i_SCT)
  call void (i32, i32, ptr, ...) @ERR_set_error(i32 noundef 50, i32 noundef 104, ptr noundef null)
  store i32 2, ptr %12, align 4
  br label %184

175:                                              ; preds = %159
  %176 = load i32, ptr %10, align 4, !tbaa !27
  %177 = sext i32 %176 to i64
  %178 = load i64, ptr %7, align 8, !tbaa !10
  %179 = sub i64 %178, %177
  store i64 %179, ptr %7, align 8, !tbaa !10
  %180 = load ptr, ptr %9, align 8, !tbaa !16
  %181 = load i64, ptr %7, align 8, !tbaa !10
  %182 = getelementptr inbounds nuw i8, ptr %180, i64 %181
  %183 = load ptr, ptr %6, align 8, !tbaa !8
  store ptr %182, ptr %183, align 8, !tbaa !16
  store i32 0, ptr %12, align 4
  br label %184

184:                                              ; preds = %174, %157, %143, %52, %38, %175
  call void @llvm.lifetime.end.p0(i64 8, ptr %11) #5
  call void @llvm.lifetime.end.p0(i64 4, ptr %10) #5
  %185 = load i32, ptr %12, align 4
  switch i32 %185, label %218 [
    i32 0, label %186
    i32 2, label %216
  ]

186:                                              ; preds = %184
  br label %206

187:                                              ; preds = %23
  %188 = load ptr, ptr %9, align 8, !tbaa !16
  %189 = load i64, ptr %7, align 8, !tbaa !10
  %190 = call noalias ptr @CRYPTO_memdup(ptr noundef %188, i64 noundef %189, ptr noundef @.str, i32 noundef 135)
  %191 = load ptr, ptr %8, align 8, !tbaa !3
  %192 = getelementptr inbounds nuw %struct.sct_st, ptr %191, i32 0, i32 1
  store ptr %190, ptr %192, align 8, !tbaa !28
  %193 = load ptr, ptr %8, align 8, !tbaa !3
  %194 = getelementptr inbounds nuw %struct.sct_st, ptr %193, i32 0, i32 1
  %195 = load ptr, ptr %194, align 8, !tbaa !28
  %196 = icmp eq ptr %195, null
  br i1 %196, label %197, label %198

197:                                              ; preds = %187
  br label %216

198:                                              ; preds = %187
  %199 = load i64, ptr %7, align 8, !tbaa !10
  %200 = load ptr, ptr %8, align 8, !tbaa !3
  %201 = getelementptr inbounds nuw %struct.sct_st, ptr %200, i32 0, i32 2
  store i64 %199, ptr %201, align 8, !tbaa !29
  %202 = load ptr, ptr %9, align 8, !tbaa !16
  %203 = load i64, ptr %7, align 8, !tbaa !10
  %204 = getelementptr inbounds nuw i8, ptr %202, i64 %203
  %205 = load ptr, ptr %6, align 8, !tbaa !8
  store ptr %204, ptr %205, align 8, !tbaa !16
  br label %206

206:                                              ; preds = %198, %186
  %207 = load ptr, ptr %5, align 8, !tbaa !20
  %208 = icmp ne ptr %207, null
  br i1 %208, label %209, label %214

209:                                              ; preds = %206
  %210 = load ptr, ptr %5, align 8, !tbaa !20
  %211 = load ptr, ptr %210, align 8, !tbaa !3
  call void @SCT_free(ptr noundef %211)
  %212 = load ptr, ptr %8, align 8, !tbaa !3
  %213 = load ptr, ptr %5, align 8, !tbaa !20
  store ptr %212, ptr %213, align 8, !tbaa !3
  br label %214

214:                                              ; preds = %209, %206
  %215 = load ptr, ptr %8, align 8, !tbaa !3
  store ptr %215, ptr %4, align 8
  store i32 1, ptr %12, align 4
  br label %218

216:                                              ; preds = %184, %197, %22, %18
  %217 = load ptr, ptr %8, align 8, !tbaa !3
  call void @SCT_free(ptr noundef %217)
  store ptr null, ptr %4, align 8
  store i32 1, ptr %12, align 4
  br label %218

218:                                              ; preds = %216, %214, %184
  call void @llvm.lifetime.end.p0(i64 8, ptr %9) #5
  call void @llvm.lifetime.end.p0(i64 8, ptr %8) #5
  %219 = load ptr, ptr %4, align 8
  ret ptr %219
}