; Function Attrs: nounwind uwtable
define ptr @o2i_SCT(ptr noundef captures(address_is_null) %0, ptr noundef captures(none) %1, i64 noundef %2) local_unnamed_addr #0 {
  %4 = alloca ptr, align 8
  call void @llvm.lifetime.start.p0(i64 8, ptr nonnull %4) #4
  %5 = add i64 %2, -65536
  %or.cond = icmp ult i64 %5, -65535
  br i1 %or.cond, label %.thread.sink.split, label %6

6:                                                ; preds = %3
  %7 = tail call ptr @SCT_new() #4
  %8 = icmp eq ptr %7, null
  br i1 %8, label %.thread, label %9

9:                                                ; preds = %6
  %10 = load ptr, ptr %1, align 8, !tbaa !11
  %11 = load i8, ptr %10, align 1, !tbaa !12
  %12 = zext i8 %11 to i32
  store i32 %12, ptr %7, align 8, !tbaa !3
  %13 = icmp eq i8 %11, 0
  br i1 %13, label %14, label %89

14:                                               ; preds = %9
  %15 = icmp samesign ult i64 %2, 43
  br i1 %15, label %.thread.sink.split, label %16

16:                                               ; preds = %14
  %17 = add nsw i64 %2, -43
  %18 = getelementptr inbounds nuw i8, ptr %10, i64 1
  %19 = tail call noalias ptr @CRYPTO_memdup(ptr noundef nonnull %18, i64 noundef 32, ptr noundef nonnull @.str, i32 noundef 104) #4
  %20 = getelementptr inbounds nuw i8, ptr %7, i64 24
  store ptr %19, ptr %20, align 8, !tbaa !15
  %21 = icmp eq ptr %19, null
  br i1 %21, label %.thread, label %22

22:                                               ; preds = %16
  %23 = getelementptr inbounds nuw i8, ptr %7, i64 32
  store i64 32, ptr %23, align 8, !tbaa !16
  %24 = getelementptr inbounds nuw i8, ptr %10, i64 33
  %25 = getelementptr inbounds nuw i8, ptr %10, i64 34
  %26 = load i8, ptr %24, align 1, !tbaa !12
  %27 = zext i8 %26 to i64
  %28 = shl nuw i64 %27, 56
  %29 = getelementptr inbounds nuw i8, ptr %7, i64 40
  store i64 %28, ptr %29, align 8, !tbaa !17
  %30 = getelementptr inbounds nuw i8, ptr %10, i64 35
  %31 = load i8, ptr %25, align 1, !tbaa !12
  %32 = zext i8 %31 to i64
  %33 = shl nuw nsw i64 %32, 48
  %34 = or disjoint i64 %33, %28
  store i64 %34, ptr %29, align 8, !tbaa !17
  %35 = getelementptr inbounds nuw i8, ptr %10, i64 36
  store ptr %35, ptr %4, align 8, !tbaa !11
  %36 = load i8, ptr %30, align 1, !tbaa !12
  %37 = zext i8 %36 to i64
  %38 = shl nuw nsw i64 %37, 40
  %39 = or disjoint i64 %38, %34
  store i64 %39, ptr %29, align 8, !tbaa !17
  %40 = getelementptr inbounds nuw i8, ptr %10, i64 37
  %41 = load i8, ptr %35, align 1, !tbaa !12
  %42 = zext i8 %41 to i64
  %43 = shl nuw nsw i64 %42, 32
  %44 = or disjoint i64 %43, %39
  store i64 %44, ptr %29, align 8, !tbaa !17
  %45 = getelementptr inbounds nuw i8, ptr %10, i64 38
  %46 = load i8, ptr %40, align 1, !tbaa !12
  %47 = zext i8 %46 to i64
  %48 = shl nuw nsw i64 %47, 24
  %49 = or disjoint i64 %48, %44
  store i64 %49, ptr %29, align 8, !tbaa !17
  %50 = getelementptr inbounds nuw i8, ptr %10, i64 39
  %51 = load i8, ptr %45, align 1, !tbaa !12
  %52 = zext i8 %51 to i64
  %53 = shl nuw nsw i64 %52, 16
  %54 = or disjoint i64 %53, %49
  store i64 %54, ptr %29, align 8, !tbaa !17
  %55 = getelementptr inbounds nuw i8, ptr %10, i64 40
  %56 = load i8, ptr %50, align 1, !tbaa !12
  %57 = zext i8 %56 to i64
  %58 = shl nuw nsw i64 %57, 8
  %59 = or i64 %58, %54
  store i64 %59, ptr %29, align 8, !tbaa !17
  %60 = getelementptr inbounds nuw i8, ptr %10, i64 41
  %61 = load i8, ptr %55, align 1, !tbaa !12
  %62 = zext i8 %61 to i64
  %63 = or i64 %59, %62
  store i64 %63, ptr %29, align 8, !tbaa !17
  %64 = load i8, ptr %60, align 1, !tbaa !12
  %65 = zext i8 %64 to i64
  %66 = shl nuw nsw i64 %65, 8
  %67 = getelementptr inbounds nuw i8, ptr %10, i64 42
  %68 = load i8, ptr %67, align 1, !tbaa !12
  %69 = zext i8 %68 to i64
  %70 = or disjoint i64 %66, %69
  %71 = getelementptr inbounds nuw i8, ptr %10, i64 43
  %72 = icmp samesign ult i64 %17, %70
  br i1 %72, label %.thread.sink.split, label %73

73:                                               ; preds = %22
  %.not = icmp eq i64 %70, 0
  br i1 %.not, label %78, label %74

74:                                               ; preds = %73
  %75 = tail call noalias ptr @CRYPTO_memdup(ptr noundef nonnull %71, i64 noundef %70, ptr noundef nonnull @.str, i32 noundef 118) #4
  %76 = getelementptr inbounds nuw i8, ptr %7, i64 48
  store ptr %75, ptr %76, align 8, !tbaa !18
  %77 = icmp eq ptr %75, null
  br i1 %77, label %.thread, label %78

78:                                               ; preds = %74, %73
  %79 = getelementptr inbounds nuw i8, ptr %7, i64 56
  store i64 %70, ptr %79, align 8, !tbaa !19
  %80 = getelementptr inbounds nuw i8, ptr %71, i64 %70
  store ptr %80, ptr %4, align 8, !tbaa !11
  %81 = sub nsw i64 %17, %70
  %82 = call i32 @o2i_SCT_signature(ptr noundef nonnull %7, ptr noundef nonnull %4, i64 noundef %81)
  %83 = icmp slt i32 %82, 1
  br i1 %83, label %.thread.sink.split, label %84

84:                                               ; preds = %78
  %85 = zext nneg i32 %82 to i64
  %86 = sub nsw i64 %81, %85
  %87 = load ptr, ptr %4, align 8, !tbaa !11
  %88 = getelementptr inbounds nuw i8, ptr %87, i64 %86
  br label %96

89:                                               ; preds = %9
  %90 = tail call noalias ptr @CRYPTO_memdup(ptr noundef nonnull %10, i64 noundef %2, ptr noundef nonnull @.str, i32 noundef 135) #4
  %91 = getelementptr inbounds nuw i8, ptr %7, i64 8
  store ptr %90, ptr %91, align 8, !tbaa !20
  %92 = icmp eq ptr %90, null
  br i1 %92, label %.thread, label %93

93:                                               ; preds = %89
  %94 = getelementptr inbounds nuw i8, ptr %7, i64 16
  store i64 %2, ptr %94, align 8, !tbaa !21
  %95 = getelementptr inbounds nuw i8, ptr %10, i64 %2
  br label %96

96:                                               ; preds = %84, %93
  %storemerge = phi ptr [ %95, %93 ], [ %88, %84 ]
  store ptr %storemerge, ptr %1, align 8, !tbaa !11
  %.not59 = icmp eq ptr %0, null
  br i1 %.not59, label %99, label %97

97:                                               ; preds = %96
  %98 = load ptr, ptr %0, align 8, !tbaa !22
  tail call void @SCT_free(ptr noundef %98) #4
  store ptr %7, ptr %0, align 8, !tbaa !22
  br label %99

.thread.sink.split:                               ; preds = %78, %22, %14, %3
  %.sink = phi i32 [ 76, %3 ], [ 99, %14 ], [ 114, %22 ], [ 128, %78 ]
  %.052.ph = phi ptr [ null, %3 ], [ %7, %14 ], [ %7, %22 ], [ %7, %78 ]
  tail call void @ERR_new() #4
  tail call void @ERR_set_debug(ptr noundef nonnull @.str, i32 noundef %.sink, ptr noundef nonnull @__func__.o2i_SCT) #4
  tail call void (i32, i32, ptr, ...) @ERR_set_error(i32 noundef 50, i32 noundef 104, ptr noundef null) #4
  br label %.thread

.thread:                                          ; preds = %.thread.sink.split, %74, %16, %89, %6
  %.052 = phi ptr [ null, %6 ], [ %7, %89 ], [ %7, %16 ], [ %7, %74 ], [ %.052.ph, %.thread.sink.split ]
  tail call void @SCT_free(ptr noundef %.052) #4
  br label %99

99:                                               ; preds = %96, %97, %.thread
  %.051 = phi ptr [ null, %.thread ], [ %7, %97 ], [ %7, %96 ]
  call void @llvm.lifetime.end.p0(i64 8, ptr nonnull %4) #4
  ret ptr %.051
}